target datalayout = "e-m:e-p270:32:32-p271:32:32-p272:64:64-i64:64-i128:128-f80:128-n8:16:32:64-S128"
target triple = "x86_64-pc-linux-gnu"

%struct.bin_s = type { %struct.malloc_mutex_s, %struct.bin_stats_s, ptr, %struct.edata_heap_t, %struct.edata_list_active_t }
%struct.malloc_mutex_s = type { %union.anon }
%union.anon = type { %struct.anon }
%struct.anon = type { %struct.mutex_prof_data_t, %struct.atomic_b_t, %union.pthread_mutex_t }
%struct.mutex_prof_data_t = type { %struct.nstime_t, %struct.nstime_t, i64, i64, i32, %struct.atomic_u32_t, i64, ptr, i64 }
%struct.nstime_t = type { i64 }
%struct.atomic_u32_t = type { i32 }
%struct.atomic_b_t = type { i8 }
%union.pthread_mutex_t = type { %struct.__pthread_mutex_s }
%struct.__pthread_mutex_s = type { i32, i32, i32, i32, i32, i16, i16, %struct.__pthread_internal_list }
%struct.__pthread_internal_list = type { ptr, ptr }
%struct.bin_stats_s = type { i64, i64, i64, i64, i64, i64, i64, i64, i64, i64, i64, i64, i64, i64 }
%struct.edata_heap_t = type { %struct.ph_s }
%struct.ph_s = type { ptr, i64 }
%struct.edata_list_active_t = type { %struct.anon.1 }
%struct.anon.1 = type { ptr }
%struct.bin_with_batch_s = type { %struct.bin_s, %struct.batcher_s, [16 x %struct.bin_remote_free_data_s] }
%struct.batcher_s = type { %struct.atomic_zu_t, i64, i64, %struct.malloc_mutex_s }
%struct.atomic_zu_t = type { i64 }
%struct.bin_remote_free_data_s = type { ptr, ptr }

@.str = private unnamed_addr constant [4 x i8] c"bin\00", align 1
@duckdb_je_opt_bin_info_remote_free_max = external global i64, align 8
@duckdb_je_bin_info_nbatched_sizes = external global i32, align 4

; Function Attrs: inlinehint nounwind uwtable
define internal zeroext i1 @arena_bin_has_batch(i32 noundef %0) #2 {
  %2 = alloca i32, align 4
  store i32 %0, ptr %2, align 4, !tbaa !10
  %3 = load i32, ptr %2, align 4, !tbaa !10
  %4 = load i32, ptr @duckdb_je_bin_info_nbatched_sizes, align 4, !tbaa !10
  %5 = icmp ult i32 %3, %4
  ret i1 %5
}

; Function Attrs: inlinehint nounwind uwtable
define internal void @edata_list_active_init(ptr noundef %0) #2 {
  %2 = alloca ptr, align 8
  store ptr %0, ptr %2, align 8, !tbaa !25
  br label %3

3:                                                ; preds = %1
  %4 = load ptr, ptr %2, align 8, !tbaa !25
  %5 = getelementptr inbounds nuw %struct.edata_list_active_t, ptr %4, i32 0, i32 0
  %6 = getelementptr inbounds nuw %struct.anon.1, ptr %5, i32 0, i32 0
  store ptr null, ptr %6, align 8, !tbaa !26
  br label %7

7:                                                ; preds = %3
  ret void
}

; Function Attrs: nounwind uwtable
define zeroext i1 @duckdb_je_bin_init(ptr noundef %0, i32 noundef %1) #0 {
  %3 = alloca i1, align 1
  %4 = alloca ptr, align 8
  %5 = alloca i32, align 4
  %6 = alloca ptr, align 8
  store ptr %0, ptr %4, align 8, !tbaa !12
  store i32 %1, ptr %5, align 4, !tbaa !10
  %7 = load ptr, ptr %4, align 8, !tbaa !12
  %8 = getelementptr inbounds nuw %struct.bin_s, ptr %7, i32 0, i32 0
  %9 = call zeroext i1 @duckdb_je_malloc_mutex_init(ptr noundef %8, ptr noundef @.str, i32 noundef 26, i32 noundef 0)
  br i1 %9, label %10, label %11

10:                                               ; preds = %2
  store i1 true, ptr %3, align 1
  br label %28

11:                                               ; preds = %2
  %12 = load ptr, ptr %4, align 8, !tbaa !12
  %13 = getelementptr inbounds nuw %struct.bin_s, ptr %12, i32 0, i32 2
  store ptr null, ptr %13, align 8, !tbaa !14
  %14 = load ptr, ptr %4, align 8, !tbaa !12
  %15 = getelementptr inbounds nuw %struct.bin_s, ptr %14, i32 0, i32 3
  call void @duckdb_je_edata_heap_new(ptr noundef %15)
  %16 = load ptr, ptr %4, align 8, !tbaa !12
  %17 = getelementptr inbounds nuw %struct.bin_s, ptr %16, i32 0, i32 4
  call void @edata_list_active_init(ptr noundef %17)
  %18 = load ptr, ptr %4, align 8, !tbaa !12
  %19 = getelementptr inbounds nuw %struct.bin_s, ptr %18, i32 0, i32 1
  call void @llvm.memset.p0.i64(ptr align 8 %19, i8 0, i64 112, i1 false)
  %20 = load i32, ptr %5, align 4, !tbaa !10
  %21 = call zeroext i1 @arena_bin_has_batch(i32 noundef %20)
  br i1 %21, label %22, label %27

22:                                               ; preds = %11
  call void @llvm.lifetime.start.p0(i64 8, ptr %6) #8
  %23 = load ptr, ptr %4, align 8, !tbaa !12
  store ptr %23, ptr %6, align 8, !tbaa !23
  %24 = load ptr, ptr %6, align 8, !tbaa !23
  %25 = getelementptr inbounds nuw %struct.bin_with_batch_s, ptr %24, i32 0, i32 1
  %26 = load i64, ptr @duckdb_je_opt_bin_info_remote_free_max, align 8, !tbaa !8
  call void @batcher_init(ptr noundef %25, i64 noundef %26)
  call void @llvm.lifetime.end.p0(i64 8, ptr %6) #8
  br label %27

27:                                               ; preds = %22, %11
  store i1 false, ptr %3, align 1
  br label %28

28:                                               ; preds = %27, %10
  %29 = load i1, ptr %3, align 1
  ret i1 %29
}