; Function Attrs: nounwind uwtable
define noundef zeroext i1 @duckdb_je_bin_init(ptr noundef %0, i32 noundef %1) local_unnamed_addr #1 {
  %3 = tail call zeroext i1 @duckdb_je_malloc_mutex_init(ptr noundef %0, ptr noundef nonnull @.str, i32 noundef 26, i32 noundef 0) #6
  br i1 %3, label %14, label %4

4:                                                ; preds = %2
  %5 = getelementptr inbounds nuw i8, ptr %0, i64 224
  store ptr null, ptr %5, align 8, !tbaa !7
  %6 = getelementptr inbounds nuw i8, ptr %0, i64 232
  tail call void @duckdb_je_edata_heap_new(ptr noundef nonnull %6) #6
  %7 = getelementptr inbounds nuw i8, ptr %0, i64 248
  store ptr null, ptr %7, align 8, !tbaa !18
  %8 = getelementptr inbounds nuw i8, ptr %0, i64 112
  tail call void @llvm.memset.p0.i64(ptr noundef nonnull align 8 dereferenceable(112) %8, i8 0, i64 112, i1 false)
  %9 = load i32, ptr @duckdb_je_bin_info_nbatched_sizes, align 4, !tbaa !3
  %10 = icmp ult i32 %1, %9
  br i1 %10, label %11, label %14

11:                                               ; preds = %4
  %12 = getelementptr inbounds nuw i8, ptr %0, i64 256
  %13 = load i64, ptr @duckdb_je_opt_bin_info_remote_free_max, align 8, !tbaa !19
  tail call void @batcher_init(ptr noundef nonnull %12, i64 noundef %13) #6
  br label %14

14:                                               ; preds = %4, %11, %2
  ret i1 %3
}